target datalayout = "e-m:e-p270:32:32-p271:32:32-p272:64:64-i64:64-i128:128-f80:128-n8:16:32:64-S128"
target triple = "x86_64-pc-linux-gnu"

%"struct.duckdb::timestamp_t" = type { i64 }
%"struct.duckdb::Int96" = type { [3 x i32] }

; Function Attrs: mustprogress nounwind uwtable
define linkonce_odr noundef i64 @_ZN6duckdb4LoadIlEEKT_PKh(ptr noundef %0) #2 comdat {
  %2 = alloca ptr, align 8
  %3 = alloca i64, align 8
  store ptr %0, ptr %2, align 8, !tbaa !19
  call void @llvm.lifetime.start.p0(i64 8, ptr %3) #7
  %4 = load ptr, ptr %2, align 8, !tbaa !19
  call void @llvm.memcpy.p0.p0.i64(ptr align 8 %3, ptr align 1 %4, i64 8, i1 false)
  %5 = load i64, ptr %3, align 8, !tbaa !11
  call void @llvm.lifetime.end.p0(i64 8, ptr %3) #7
  ret i64 %5
}

; Function Attrs: mustprogress nounwind uwtable
define linkonce_odr noundef ptr @_ZN6duckdb19const_data_ptr_castIjEEPKhPKT_(ptr noundef %0) #2 comdat {
  %2 = alloca ptr, align 8
  store ptr %0, ptr %2, align 8, !tbaa !21
  %3 = load ptr, ptr %2, align 8, !tbaa !21
  ret ptr %3
}

; Function Attrs: inlinehint mustprogress nounwind uwtable
define internal noundef i64 @_ZN6duckdbL21ImpalaTimestampToDaysERKNS_5Int96E(ptr noundef nonnull align 4 dereferenceable(12) %0) #5 {
  %2 = alloca ptr, align 8
  store ptr %0, ptr %2, align 8, !tbaa !3
  %3 = load ptr, ptr %2, align 8, !tbaa !3
  %4 = getelementptr inbounds nuw %"struct.duckdb::Int96", ptr %3, i32 0, i32 0
  %5 = getelementptr inbounds [3 x i32], ptr %4, i64 0, i64 2
  %6 = load i32, ptr %5, align 4, !tbaa !15
  %7 = zext i32 %6 to i64
  %8 = sub nsw i64 %7, 2440588
  ret i64 %8
}

; Function Attrs: mustprogress nounwind uwtable
define internal noundef i64 @_ZN6duckdbL29ImpalaTimestampToMicrosecondsERKNS_5Int96E(ptr noundef nonnull align 4 dereferenceable(12) %0) #2 {
  %2 = alloca ptr, align 8
  %3 = alloca i64, align 8
  %4 = alloca i64, align 8
  %5 = alloca i64, align 8
  store ptr %0, ptr %2, align 8, !tbaa !3
  call void @llvm.lifetime.start.p0(i64 8, ptr %3) #7
  %6 = load ptr, ptr %2, align 8, !tbaa !3
  %7 = call noundef i64 @_ZN6duckdbL21ImpalaTimestampToDaysERKNS_5Int96E(ptr noundef nonnull align 4 dereferenceable(12) %6)
  store i64 %7, ptr %3, align 8, !tbaa !11
  call void @llvm.lifetime.start.p0(i64 8, ptr %4) #7
  %8 = load ptr, ptr %2, align 8, !tbaa !3
  %9 = getelementptr inbounds nuw %"struct.duckdb::Int96", ptr %8, i32 0, i32 0
  %10 = getelementptr inbounds [3 x i32], ptr %9, i64 0, i64 0
  %11 = call noundef ptr @_ZN6duckdb19const_data_ptr_castIjEEPKhPKT_(ptr noundef %10)
  %12 = call noundef i64 @_ZN6duckdb4LoadIlEEKT_PKh(ptr noundef %11)
  store i64 %12, ptr %4, align 8, !tbaa !11
  call void @llvm.lifetime.start.p0(i64 8, ptr %5) #7
  %13 = load i64, ptr %4, align 8, !tbaa !11
  %14 = sdiv i64 %13, 1000
  store i64 %14, ptr %5, align 8, !tbaa !11
  %15 = load i64, ptr %3, align 8, !tbaa !11
  %16 = mul nsw i64 %15, 86400000000
  %17 = load i64, ptr %5, align 8, !tbaa !11
  %18 = add nsw i64 %16, %17
  call void @llvm.lifetime.end.p0(i64 8, ptr %5) #7
  call void @llvm.lifetime.end.p0(i64 8, ptr %4) #7
  call void @llvm.lifetime.end.p0(i64 8, ptr %3) #7
  ret i64 %18
}

; Function Attrs: mustprogress uwtable
define i64 @_ZN6duckdb26ImpalaTimestampToTimestampERKNS_5Int96E(ptr noundef nonnull align 4 dereferenceable(12) %0) #0 {
  %2 = alloca %"struct.duckdb::timestamp_t", align 8
  %3 = alloca ptr, align 8
  %4 = alloca i64, align 8
  store ptr %0, ptr %3, align 8, !tbaa !3
  call void @llvm.lifetime.start.p0(i64 8, ptr %4) #7
  %5 = load ptr, ptr %3, align 8, !tbaa !3
  %6 = call noundef i64 @_ZN6duckdbL29ImpalaTimestampToMicrosecondsERKNS_5Int96E(ptr noundef nonnull align 4 dereferenceable(12) %5)
  store i64 %6, ptr %4, align 8, !tbaa !11
  %7 = load i64, ptr %4, align 8, !tbaa !11
  %8 = call i64 @_ZN6duckdb9Timestamp21FromEpochMicroSecondsEl(i64 noundef %7)
  %9 = getelementptr inbounds nuw %"struct.duckdb::timestamp_t", ptr %2, i32 0, i32 0
  store i64 %8, ptr %9, align 8
  call void @llvm.lifetime.end.p0(i64 8, ptr %4) #7
  %10 = getelementptr inbounds nuw %"struct.duckdb::timestamp_t", ptr %2, i32 0, i32 0
  %11 = load i64, ptr %10, align 8
  ret i64 %11
}