; Function Attrs: mustprogress uwtable
define i64 @_ZN6duckdb26ImpalaTimestampToTimestampERKNS_5Int96E(ptr noundef nonnull readonly align 4 captures(none) dereferenceable(12) %0) local_unnamed_addr #1 {
  %.val = load i64, ptr %0, align 4
  %2 = getelementptr inbounds nuw i8, ptr %0, i64 8
  %.val1 = load i32, ptr %2, align 4, !tbaa !3
  %3 = zext i32 %.val1 to i64
  %4 = sdiv i64 %.val, 1000
  %5 = mul i64 %3, 86400000000
  %6 = add nsw i64 %4, -210866803200000000
  %7 = add i64 %6, %5
  %8 = tail call i64 @_ZN6duckdb9Timestamp21FromEpochMicroSecondsEl(i64 noundef %7)
  ret i64 %8
}